	.file	"Filter.c"
	.text
.Ltext0:
	.p2align 4,,15
	.globl	_Z17Filter_horizontalPKhPh
	.type	_Z17Filter_horizontalPKhPh, @function
_Z17Filter_horizontalPKhPh:
.LFB57:
	.file 1 "Filter.c"
	.loc 1 17 0
	.cfi_startproc
.LVL0:
.L2:
	leaq	5994(%rdi), %r9
	leaq	27005994(%rdi), %r11
	leaq	Coefficients(%rip), %rdi
.LVL1:
	movq	%rsi, %r10
.LVL2:
.L5:
	leaq	-5994(%r9), %rsi
	.loc 1 17 0
	movq	%r10, %r8
.LVL3:
	.p2align 4,,10
	.p2align 3
.L4:
	xorl	%eax, %eax
.LBB2:
.LBB3:
.LBB4:
.LBB5:
	.loc 1 21 0
	xorl	%ecx, %ecx
.LVL4:
	.p2align 4,,10
	.p2align 3
.L3:
.LBB6:
	.loc 1 23 0 discriminator 2
	movzbl	(%rsi,%rax), %edx
	imull	(%rdi,%rax,4), %edx
	addq	$1, %rax
.LVL5:
	addl	%edx, %ecx
.LVL6:
	.loc 1 22 0 discriminator 2
	cmpq	$7, %rax
	jne	.L3
.LBE6:
	.loc 1 24 0 discriminator 2
	movzbl	%ch, %eax
	addq	$1, %rsi
	addq	$1, %r8
.LVL7:
	movb	%al, -1(%r8)
.LDL1:
.LBE5:
	.loc 1 19 0 discriminator 2
	cmpq	%rsi, %r9
	jne	.L4
	addq	$6000, %r9
	addq	$5994, %r10
.LBE4:
.LBE3:
	.loc 1 18 0 discriminator 2
	cmpq	%r9, %r11
	jne	.L5
.LBE2:
	.loc 1 26 0
	rep ret
	.cfi_endproc
.LFE57:
	.size	_Z17Filter_horizontalPKhPh, .-_Z17Filter_horizontalPKhPh
	.p2align 4,,15
	.globl	_Z6FilterPKhPh
	.type	_Z6FilterPKhPh, @function
_Z6FilterPKhPh:
.LFB58:
	.loc 1 41 0
	.cfi_startproc
.LVL8:
	pushq	%rbp
	.cfi_def_cfa_offset 16
	.cfi_offset 6, -16
	pushq	%rbx
	.cfi_def_cfa_offset 24
	.cfi_offset 3, -24
	movq	%rdi, %rbp
	.loc 1 42 0
	movl	$26973000, %edi
.LVL9:
	.loc 1 41 0
	subq	$8, %rsp
	.cfi_def_cfa_offset 32
	.loc 1 42 0
	call	malloc@PLT
.LVL10:
	.loc 1 44 0
	movq	%rbp, %rdi
	movq	%rax, %rsi
	.loc 1 42 0
	movq	%rax, %rbx
.LVL11:
	.loc 1 44 0
	call	_Z17Filter_horizontalPKhPh
.LVL12:
	.loc 1 48 0
	addq	$8, %rsp
	.cfi_def_cfa_offset 24
	.loc 1 47 0
	movq	%rbx, %rdi
	.loc 1 48 0
	popq	%rbx
	.cfi_def_cfa_offset 16
.LVL13:
	popq	%rbp
	.cfi_def_cfa_offset 8
.LVL14:
	.loc 1 47 0
	jmp	free@PLT
.LVL15:
	.cfi_endproc
.LFE58:
	.size	_Z6FilterPKhPh, .-_Z6FilterPKhPh
	.globl	Coefficients
	.data
	.align 16
	.type	Coefficients, @object
	.size	Coefficients, 28
Coefficients:
	.long	2
	.long	15
	.long	62
	.long	98
	.long	62
	.long	15
	.long	2
	.text
.Letext0:
	.file 2 "/usr/include/c++/7/cstdlib"
	.file 3 "/usr/include/x86_64-linux-gnu/c++/7/bits/c++config.h"
	.file 4 "/usr/lib/gcc/x86_64-linux-gnu/7/include/stddef.h"
	.file 5 "/usr/include/stdlib.h"
	.file 6 "/usr/include/x86_64-linux-gnu/bits/types.h"
	.file 7 "/usr/include/x86_64-linux-gnu/bits/stdlib-float.h"
	.file 8 "/usr/include/x86_64-linux-gnu/bits/stdlib-bsearch.h"
	.file 9 "/usr/include/x86_64-linux-gnu/bits/stdlib.h"
	.file 10 "/usr/include/c++/7/stdlib.h"
	.file 11 "/usr/include/x86_64-linux-gnu/bits/libio.h"
	.file 12 "/usr/include/stdio.h"
	.file 13 "/usr/include/x86_64-linux-gnu/bits/sys_errlist.h"
	.file 14 "<built-in>"
	.section	.note.GNU-stack,"",@progbits
